; ModuleID = '50/439.c'
source_filename = "50/439.c"
target datalayout = "e-m:e-p270:32:32-p271:32:32-p272:64:64-i64:64-f80:128-n8:16:32:64-S128"
target triple = "x86_64-pc-linux-gnu"

@.str = private unnamed_addr constant [3 x i8] c"%d\00", align 1
@.str.1 = private unnamed_addr constant [4 x i8] c"%d\0A\00", align 1

; Function Attrs: noinline nounwind uwtable
define dso_local i32 @main() #0 {
  %1 = alloca i32, align 4
  %2 = alloca i32, align 4
  %3 = alloca i32, align 4
  %4 = alloca i32, align 4
  store i32 0, i32* %1, align 4
  %5 = call i32 (i8*, ...) @__isoc99_scanf(i8* getelementptr inbounds ([3 x i8], [3 x i8]* @.str, i64 0, i64 0), i32* %2)
  store i32 1, i32* %3, align 4
  br label %6

6:                                                ; preds = %24, %0
  %7 = load i32, i32* %3, align 4
  %8 = icmp sle i32 %7, 12
  br i1 %8, label %9, label %27

9:                                                ; preds = %6
  %10 = load i32, i32* %2, align 4
  %11 = add nsw i32 %10, 12
  %12 = srem i32 %11, 7
  store i32 %12, i32* %4, align 4
  %13 = load i32, i32* %4, align 4
  %14 = icmp eq i32 %13, 5
  br i1 %14, label %15, label %18

15:                                               ; preds = %9
  %16 = load i32, i32* %3, align 4
  %17 = call i32 (i8*, ...) @printf(i8* getelementptr inbounds ([4 x i8], [4 x i8]* @.str.1, i64 0, i64 0), i32 %16)
  br label %18

18:                                               ; preds = %15, %9
  %19 = load i32, i32* %2, align 4
  %20 = load i32, i32* %3, align 4
  %21 = call i32 @dayOfMonth(i32 %20)
  %22 = add nsw i32 %19, %21
  %23 = srem i32 %22, 7
  store i32 %23, i32* %2, align 4
  br label %24

24:                                               ; preds = %18
  %25 = load i32, i32* %3, align 4
  %26 = add nsw i32 %25, 1
  store i32 %26, i32* %3, align 4
  br label %6

27:                                               ; preds = %6
  ret i32 0
}

declare dso_local i32 @__isoc99_scanf(i8*, ...) #1

declare dso_local i32 @printf(i8*, ...) #1

; Function Attrs: noinline nounwind uwtable
define dso_local i32 @dayOfMonth(i32 %0) #0 {
  %2 = alloca i32, align 4
  %3 = alloca i32, align 4
  store i32 %0, i32* %3, align 4
  %4 = load i32, i32* %3, align 4
  switch i32 %4, label %16 [
    i32 1, label %5
    i32 2, label %6
    i32 3, label %7
    i32 4, label %8
    i32 5, label %9
    i32 6, label %10
    i32 7, label %11
    i32 8, label %12
    i32 9, label %13
    i32 10, label %14
    i32 11, label %15
  ]

5:                                                ; preds = %1
  store i32 31, i32* %2, align 4
  br label %17

6:                                                ; preds = %1
  store i32 28, i32* %2, align 4
  br label %17

7:                                                ; preds = %1
  store i32 31, i32* %2, align 4
  br label %17

8:                                                ; preds = %1
  store i32 30, i32* %2, align 4
  br label %17

9:                                                ; preds = %1
  store i32 31, i32* %2, align 4
  br label %17

10:                                               ; preds = %1
  store i32 30, i32* %2, align 4
  br label %17

11:                                               ; preds = %1
  store i32 31, i32* %2, align 4
  br label %17

12:                                               ; preds = %1
  store i32 31, i32* %2, align 4
  br label %17

13:                                               ; preds = %1
  store i32 30, i32* %2, align 4
  br label %17

14:                                               ; preds = %1
  store i32 31, i32* %2, align 4
  br label %17

15:                                               ; preds = %1
  store i32 30, i32* %2, align 4
  br label %17

16:                                               ; preds = %1
  store i32 31, i32* %2, align 4
  br label %17

17:                                               ; preds = %16, %15, %14, %13, %12, %11, %10, %9, %8, %7, %6, %5
  %18 = load i32, i32* %2, align 4
  ret i32 %18
}


!llvm.module.flags = !{!0}
!llvm.ident = !{!1}

!0 = !{i32 1, !"wchar_size", i32 4}
!1 = !{!"clang version 10.0.0-4ubuntu1 "}
