; ModuleID = 'source-C-CXX/49/439.c'
source_filename = "source-C-CXX/49/439.c"
target datalayout = "e-m:e-p270:32:32-p271:32:32-p272:64:64-i64:64-f80:128-n8:16:32:64-S128"
target triple = "x86_64-pc-linux-gnu"

@.str = private unnamed_addr constant [3 x i8] c"%d\00", align 1
@.str.1 = private unnamed_addr constant [4 x i8] c"%d\0A\00", align 1
@switch.table.dayOfMonth = private unnamed_addr constant [10 x i32] [i32 28, i32 31, i32 30, i32 31, i32 30, i32 31, i32 31, i32 30, i32 31, i32 30], align 4

; Function Attrs: nofree nounwind sspstrong uwtable
define dso_local i32 @main() local_unnamed_addr #0 {
  %1 = alloca i32, align 4
  %2 = bitcast i32* %1 to i8*
  call void @llvm.lifetime.start.p0i8(i64 4, i8* nonnull %2) #4
  %3 = call i32 (i8*, ...) @__isoc99_scanf(i8* getelementptr inbounds ([3 x i8], [3 x i8]* @.str, i64 0, i64 0), i32* nonnull %1)
  %4 = load i32, i32* %1, align 4, !tbaa !5
  br label %6

5:                                                ; preds = %23
  call void @llvm.lifetime.end.p0i8(i64 4, i8* nonnull %2) #4
  ret i32 0

6:                                                ; preds = %0, %23
  %7 = phi i32 [ %4, %0 ], [ %26, %23 ]
  %8 = phi i32 [ 1, %0 ], [ %27, %23 ]
  %9 = add nsw i32 %7, 12
  %10 = srem i32 %9, 7
  %11 = icmp eq i32 %10, 5
  br i1 %11, label %12, label %15

12:                                               ; preds = %6
  %13 = call i32 (i8*, ...) @printf(i8* nonnull dereferenceable(1) getelementptr inbounds ([4 x i8], [4 x i8]* @.str.1, i64 0, i64 0), i32 %8)
  %14 = load i32, i32* %1, align 4, !tbaa !5
  br label %15

15:                                               ; preds = %12, %6
  %16 = phi i32 [ %14, %12 ], [ %7, %6 ]
  %17 = add nsw i32 %8, -2
  %18 = icmp ult i32 %17, 10
  br i1 %18, label %19, label %23

19:                                               ; preds = %15
  %20 = sext i32 %17 to i64
  %21 = getelementptr inbounds [10 x i32], [10 x i32]* @switch.table.dayOfMonth, i64 0, i64 %20
  %22 = load i32, i32* %21, align 4
  br label %23

23:                                               ; preds = %19, %15
  %24 = phi i32 [ 31, %15 ], [ %22, %19 ]
  %25 = add nsw i32 %24, %16
  %26 = srem i32 %25, 7
  store i32 %26, i32* %1, align 4, !tbaa !5
  %27 = add nuw nsw i32 %8, 1
  %28 = icmp eq i32 %27, 13
  br i1 %28, label %5, label %6, !llvm.loop !9
}

; Function Attrs: argmemonly mustprogress nofree nosync nounwind willreturn
declare void @llvm.lifetime.start.p0i8(i64 immarg, i8* nocapture) #1

; Function Attrs: nofree nounwind
declare noundef i32 @__isoc99_scanf(i8* nocapture noundef readonly, ...) local_unnamed_addr #2

; Function Attrs: nofree nounwind
declare noundef i32 @printf(i8* nocapture noundef readonly, ...) local_unnamed_addr #2

; Function Attrs: mustprogress nofree norecurse nosync nounwind readnone sspstrong uwtable willreturn
define dso_local i32 @dayOfMonth(i32 %0) local_unnamed_addr #3 {
  %2 = add i32 %0, -2
  %3 = icmp ult i32 %2, 10
  br i1 %3, label %4, label %8

4:                                                ; preds = %1
  %5 = sext i32 %2 to i64
  %6 = getelementptr inbounds [10 x i32], [10 x i32]* @switch.table.dayOfMonth, i64 0, i64 %5
  %7 = load i32, i32* %6, align 4
  br label %8

8:                                                ; preds = %4, %1
  %9 = phi i32 [ 31, %1 ], [ %7, %4 ]
  ret i32 %9
}

; Function Attrs: argmemonly mustprogress nofree nosync nounwind willreturn
declare void @llvm.lifetime.end.p0i8(i64 immarg, i8* nocapture) #1


!llvm.module.flags = !{!0, !1, !2, !3}
!llvm.ident = !{!4}

!0 = !{i32 1, !"wchar_size", i32 4}
!1 = !{i32 7, !"PIC Level", i32 2}
!2 = !{i32 7, !"PIE Level", i32 2}
!3 = !{i32 7, !"uwtable", i32 1}
!4 = !{!"clang version 13.0.0"}
!5 = !{!6, !6, i64 0}
!6 = !{!"int", !7, i64 0}
!7 = !{!"omnipotent char", !8, i64 0}
!8 = !{!"Simple C/C++ TBAA"}
!9 = distinct !{!9, !10}
!10 = !{!"llvm.loop.mustprogress"}
